target datalayout = "e-m:e-p270:32:32-p271:32:32-p272:64:64-i64:64-i128:128-f80:128-n8:16:32:64-S128"
target triple = "x86_64-pc-linux-gnu"

%"struct.nanobind::dlpack::dtype" = type { i8, i8, i16 }
%"class.nanobind::object" = type { %"class.nanobind::handle" }
%"class.nanobind::handle" = type { ptr }
%"struct.nanobind::dlpack::dltensor" = type { ptr, %"struct.nanobind::dlpack::device", i32, %"struct.nanobind::dlpack::dtype", ptr, ptr, i64 }
%"struct.nanobind::dlpack::device" = type { i32, i32 }
%"class.std::initializer_list" = type { ptr, i64 }
%"class.std::initializer_list.441" = type { ptr, i64 }
%"class.nanobind::ndarray.149" = type { ptr, %"struct.nanobind::dlpack::dltensor" }
%struct.Matrix4f = type { [4 x [4 x float]] }
%"class.nanobind::detail::ndarray_object" = type { %"class.nanobind::object" }

@_ZN8nanobind6detail12dtype_traitsIfiE5valueE = linkonce_odr hidden constant %"struct.nanobind::dlpack::dtype" { i8 2, i8 32, i16 1 }, comdat, align 2
@_ZTIZL30nanobind_init_test_ndarray_extRN8nanobind7module_EE8Matrix4f = internal constant { ptr, ptr } { ptr getelementptr inbounds (ptr, ptr @_ZTVN10__cxxabiv117__class_type_infoE, i64 2), ptr @_ZTSZL30nanobind_init_test_ndarray_extRN8nanobind7module_EE8Matrix4f }, align 8

; Function Attrs: inlinehint mustprogress nounwind optsize uwtable
define linkonce_odr hidden void @_ZN8nanobind6detail14ndarray_objectIJfNS_5numpyENS0_5shapeIJLl4ELl4EEEENS_8f_contigEEECI2NS_6objectEENS_6handleENS0_7steal_tE(ptr noundef nonnull align 8 dereferenceable(8) %0, ptr %1) unnamed_addr #11 comdat align 2 {
  %3 = alloca %"class.nanobind::handle", align 8
  %4 = alloca ptr, align 8
  %5 = getelementptr inbounds nuw %"class.nanobind::handle", ptr %3, i32 0, i32 0
  store ptr %1, ptr %5, align 8
  store ptr %0, ptr %4, align 8, !tbaa !1015
  %6 = load ptr, ptr %4, align 8
  %7 = getelementptr inbounds nuw %"class.nanobind::handle", ptr %3, i32 0, i32 0
  %8 = load ptr, ptr %7, align 8
  call void @_ZN8nanobind6objectC2ENS_6handleENS_6detail7steal_tE(ptr noundef nonnull align 8 dereferenceable(8) %6, ptr %8) #21
  ret void
}

; Function Attrs: mustprogress optsize uwtable
define linkonce_odr hidden ptr @_ZN8nanobind6object7releaseEv(ptr noundef nonnull align 8 dereferenceable(8) %0) #0 comdat align 2 {
  %2 = alloca %"class.nanobind::handle", align 8
  %3 = alloca ptr, align 8
  store ptr %0, ptr %3, align 8, !tbaa !21
  %4 = load ptr, ptr %3, align 8
  %5 = getelementptr inbounds nuw %"class.nanobind::handle", ptr %4, i32 0, i32 0
  %6 = load ptr, ptr %5, align 8, !tbaa !14
  call void @_ZN8nanobind6handleC2EPK7_object(ptr noundef nonnull align 8 dereferenceable(8) %2, ptr noundef %6) #21
  %7 = getelementptr inbounds nuw %"class.nanobind::handle", ptr %4, i32 0, i32 0
  store ptr null, ptr %7, align 8, !tbaa !14
  %8 = getelementptr inbounds nuw %"class.nanobind::handle", ptr %2, i32 0, i32 0
  %9 = load ptr, ptr %8, align 8
  ret ptr %9
}

; Function Attrs: mustprogress nounwind optsize uwtable
define linkonce_odr hidden void @_ZN8nanobind6objectC2ENS_6handleENS_6detail7steal_tE(ptr noundef nonnull align 8 dereferenceable(8) %0, ptr %1) unnamed_addr #8 comdat align 2 {
  %3 = alloca %"class.nanobind::handle", align 8
  %4 = alloca ptr, align 8
  %5 = getelementptr inbounds nuw %"class.nanobind::handle", ptr %3, i32 0, i32 0
  store ptr %1, ptr %5, align 8
  store ptr %0, ptr %4, align 8, !tbaa !21
  %6 = load ptr, ptr %4, align 8
  call void @llvm.memcpy.p0.p0.i64(ptr align 8 %6, ptr align 8 %3, i64 8, i1 false)
  ret void
}

; Function Attrs: alwaysinline mustprogress nounwind optsize uwtable
define linkonce_odr hidden void @_ZN8nanobind6handleC2EPK7_object(ptr noundef nonnull align 8 dereferenceable(8) %0, ptr noundef %1) unnamed_addr #5 comdat align 2 {
  %3 = alloca ptr, align 8
  %4 = alloca ptr, align 8
  store ptr %0, ptr %3, align 8, !tbaa !12
  store ptr %1, ptr %4, align 8, !tbaa !3
  %5 = load ptr, ptr %3, align 8
  %6 = getelementptr inbounds nuw %"class.nanobind::handle", ptr %5, i32 0, i32 0
  %7 = load ptr, ptr %4, align 8, !tbaa !3
  store ptr %7, ptr %6, align 8, !tbaa !14
  ret void
}

; Function Attrs: alwaysinline mustprogress nounwind optsize uwtable
define internal noundef i32 @_ZN8nanobind6detail12infer_policyIRKPZL30nanobind_init_test_ndarray_extRNS_7module_EE8Matrix4fEENS_9rv_policyES8_(i32 noundef %0) #5 {
  %2 = alloca i32, align 4
  store i32 %0, ptr %2, align 4, !tbaa !18
  %3 = load i32, ptr %2, align 4, !tbaa !18
  %4 = icmp eq i32 %3, 0
  br i1 %4, label %5, label %6

5:                                                ; preds = %1
  store i32 2, ptr %2, align 4, !tbaa !18
  br label %11

6:                                                ; preds = %1
  %7 = load i32, ptr %2, align 4, !tbaa !18
  %8 = icmp eq i32 %7, 1
  br i1 %8, label %9, label %10

9:                                                ; preds = %6
  store i32 5, ptr %2, align 4, !tbaa !18
  br label %10

10:                                               ; preds = %9, %6
  br label %11

11:                                               ; preds = %10, %5
  %12 = load i32, ptr %2, align 4, !tbaa !18
  ret i32 %12
}

; Function Attrs: alwaysinline mustprogress optsize uwtable
define linkonce_odr hidden void @_ZN8nanobind6borrowINS_6detail14ndarray_objectIJfNS_5numpyENS1_5shapeIJLl4ELl4EEEENS_8f_contigEEEENS_6objectETnNSt9enable_ifIXaasr3stdE12is_base_of_vIS8_T0_Entsr3stdE21is_lvalue_reference_vISA_EEiE4typeELi0EEET_OSA_(ptr dead_on_unwind noalias writable sret(%"class.nanobind::detail::ndarray_object") align 8 %0, ptr noundef nonnull align 8 dereferenceable(8) %1) #3 comdat {
  %3 = alloca ptr, align 8
  %4 = alloca ptr, align 8
  %5 = alloca %"class.nanobind::handle", align 8
  store ptr %0, ptr %3, align 8
  store ptr %1, ptr %4, align 8, !tbaa !21
  %6 = load ptr, ptr %4, align 8, !tbaa !21
  %7 = call ptr @_ZN8nanobind6object7releaseEv(ptr noundef nonnull align 8 dereferenceable(8) %6) #21
  %8 = getelementptr inbounds nuw %"class.nanobind::handle", ptr %5, i32 0, i32 0
  store ptr %7, ptr %8, align 8
  %9 = getelementptr inbounds nuw %"class.nanobind::handle", ptr %5, i32 0, i32 0
  %10 = load ptr, ptr %9, align 8
  call void @_ZN8nanobind6detail14ndarray_objectIJfNS_5numpyENS0_5shapeIJLl4ELl4EEEENS_8f_contigEEECI2NS_6objectEENS_6handleENS0_7steal_tE(ptr noundef nonnull align 8 dereferenceable(8) %0, ptr %10) #21
  ret void
}

; Function Attrs: noinline noreturn nounwind optsize uwtable
define linkonce_odr hidden void @__clang_call_terminate(ptr noundef %0) #7 comdat {
  %2 = call ptr @__cxa_begin_catch(ptr %0) #22
  call void @_ZSt9terminatev() #24
  unreachable
}

; Function Attrs: alwaysinline mustprogress optsize uwtable
define linkonce_odr hidden void @_ZN8nanobind5stealINS_6objectEEET_NS_6handleE(ptr dead_on_unwind noalias writable sret(%"class.nanobind::object") align 8 %0, ptr %1) #3 comdat {
  %3 = alloca ptr, align 8
  %4 = alloca %"class.nanobind::handle", align 8
  %5 = alloca %"class.nanobind::handle", align 8
  store ptr %0, ptr %3, align 8
  %6 = getelementptr inbounds nuw %"class.nanobind::handle", ptr %4, i32 0, i32 0
  store ptr %1, ptr %6, align 8
  call void @llvm.memcpy.p0.p0.i64(ptr align 8 %5, ptr align 8 %4, i64 8, i1 false)
  %7 = getelementptr inbounds nuw %"class.nanobind::handle", ptr %5, i32 0, i32 0
  %8 = load ptr, ptr %7, align 8
  call void @_ZN8nanobind6objectC2ENS_6handleENS_6detail7steal_tE(ptr noundef nonnull align 8 dereferenceable(8) %0, ptr %8) #21
  ret void
}

; Function Attrs: alwaysinline mustprogress nounwind optsize uwtable
define internal ptr @_ZN8nanobind6detail16type_caster_baseIZL30nanobind_init_test_ndarray_extRNS_7module_EE8Matrix4fE8from_cppIRKPS4_EENS_6handleEOT_NS_9rv_policyEPNS0_12cleanup_listE(ptr noundef nonnull align 8 dereferenceable(8) %0, i32 noundef %1, ptr noundef %2) #5 align 2 personality ptr @__gxx_personality_v0 {
  %4 = alloca %"class.nanobind::handle", align 8
  %5 = alloca ptr, align 8
  %6 = alloca i32, align 4
  %7 = alloca ptr, align 8
  %8 = alloca ptr, align 8
  %9 = alloca ptr, align 8
  %10 = alloca i8, align 1
  store ptr %0, ptr %5, align 8, !tbaa !1017
  store i32 %1, ptr %6, align 4, !tbaa !18
  store ptr %2, ptr %7, align 8, !tbaa !127
  call void @llvm.lifetime.start.p0(i64 8, ptr %8) #22
  %11 = load ptr, ptr %5, align 8, !tbaa !1017
  %12 = load ptr, ptr %11, align 8, !tbaa !68
  store ptr %12, ptr %8, align 8, !tbaa !68
  %13 = load i32, ptr %6, align 4, !tbaa !18
  %14 = invoke noundef i32 @_ZN8nanobind6detail12infer_policyIRKPZL30nanobind_init_test_ndarray_extRNS_7module_EE8Matrix4fEENS_9rv_policyES8_(i32 noundef %13) #21
          to label %15 unwind label %24

15:                                               ; preds = %3
  store i32 %14, ptr %6, align 4, !tbaa !18
  call void @llvm.lifetime.start.p0(i64 8, ptr %9) #22
  store ptr @_ZTIZL30nanobind_init_test_ndarray_extRN8nanobind7module_EE8Matrix4f, ptr %9, align 8, !tbaa !112
  call void @llvm.lifetime.start.p0(i64 1, ptr %10) #22
  store i8 0, ptr %10, align 1, !tbaa !33
  %16 = load ptr, ptr %9, align 8, !tbaa !112
  %17 = load ptr, ptr %8, align 8, !tbaa !68
  %18 = load i32, ptr %6, align 4, !tbaa !18
  %19 = load ptr, ptr %7, align 8, !tbaa !127
  %20 = call noundef ptr @_ZN8nanobind6detail11nb_type_putEPKSt9type_infoPvNS_9rv_policyEPNS0_12cleanup_listEPb(ptr noundef %16, ptr noundef %17, i32 noundef %18, ptr noundef %19, ptr noundef null) #23
  invoke void @_ZN8nanobind6handleC2EPK7_object(ptr noundef nonnull align 8 dereferenceable(8) %4, ptr noundef %20) #21
          to label %21 unwind label %24

21:                                               ; preds = %15
  call void @llvm.lifetime.end.p0(i64 1, ptr %10) #22
  call void @llvm.lifetime.end.p0(i64 8, ptr %9) #22
  call void @llvm.lifetime.end.p0(i64 8, ptr %8) #22
  %22 = getelementptr inbounds nuw %"class.nanobind::handle", ptr %4, i32 0, i32 0
  %23 = load ptr, ptr %22, align 8
  ret ptr %23

24:                                               ; preds = %15, %3
  %25 = landingpad { ptr, i32 }
          catch ptr null
  %26 = extractvalue { ptr, i32 } %25, 0
  call void @__clang_call_terminate(ptr %26) #24
  unreachable
}

; Function Attrs: mustprogress nounwind optsize uwtable
define linkonce_odr hidden void @_ZN8nanobind7ndarrayIJfNS_5numpyENS_6detail5shapeIJLl4ELl4EEEENS_8f_contigEEED2Ev(ptr noundef nonnull align 8 dereferenceable(56) %0) unnamed_addr #8 comdat align 2 {
  %2 = alloca ptr, align 8
  store ptr %0, ptr %2, align 8, !tbaa !1007
  %3 = load ptr, ptr %2, align 8
  %4 = getelementptr inbounds nuw %"class.nanobind::ndarray.149", ptr %3, i32 0, i32 0
  %5 = load ptr, ptr %4, align 8, !tbaa !1009
  call void @_ZN8nanobind6detail15ndarray_dec_refEPNS0_14ndarray_handleE(ptr noundef %5) #23
  ret void
}

; Function Attrs: mustprogress nounwind optsize uwtable
define linkonce_odr hidden void @_ZN8nanobind6objectD2Ev(ptr noundef nonnull align 8 dereferenceable(8) %0) unnamed_addr #8 comdat align 2 {
  %2 = alloca ptr, align 8
  store ptr %0, ptr %2, align 8, !tbaa !21
  %3 = load ptr, ptr %2, align 8
  %4 = call noundef nonnull align 8 dereferenceable(8) ptr @_ZNKR8nanobind6handle7dec_refEv(ptr noundef nonnull align 8 dereferenceable(8) %3) #23
  ret void
}

; Function Attrs: mustprogress optsize uwtable
define linkonce_odr hidden void @_ZN8nanobind7ndarrayIJfNS_5numpyENS_6detail5shapeIJLl4ELl4EEEENS_8f_contigEEE4castENS_9rv_policyENS_6handleE(ptr dead_on_unwind noalias writable sret(%"class.nanobind::detail::ndarray_object") align 8 %0, ptr noundef nonnull align 8 dereferenceable(56) %1, i32 noundef %2, ptr %3) #0 comdat align 2 personality ptr @__gxx_personality_v0 {
  %5 = alloca ptr, align 8
  %6 = alloca %"class.nanobind::handle", align 8
  %7 = alloca ptr, align 8
  %8 = alloca i32, align 4
  %9 = alloca %"class.nanobind::object", align 8
  %10 = alloca %"class.nanobind::handle", align 8
  %11 = alloca ptr, align 8
  %12 = alloca i32, align 4
  store ptr %0, ptr %5, align 8
  %13 = getelementptr inbounds nuw %"class.nanobind::handle", ptr %6, i32 0, i32 0
  store ptr %3, ptr %13, align 8
  store ptr %1, ptr %7, align 8, !tbaa !1007
  store i32 %2, ptr %8, align 4, !tbaa !18
  %14 = load ptr, ptr %7, align 8
  call void @llvm.lifetime.start.p0(i64 8, ptr %9) #22
  %15 = load i32, ptr %8, align 4, !tbaa !18
  call void @llvm.memcpy.p0.p0.i64(ptr align 8 %10, ptr align 8 %6, i64 8, i1 false)
  %16 = getelementptr inbounds nuw %"class.nanobind::handle", ptr %10, i32 0, i32 0
  %17 = load ptr, ptr %16, align 8
  call void @_ZN8nanobind4castIRNS_7ndarrayIJfNS_5numpyENS_6detail5shapeIJLl4ELl4EEEENS_8f_contigEEEEEENS_6objectEOT_NS_9rv_policyENS_6handleE(ptr dead_on_unwind writable sret(%"class.nanobind::object") align 8 %9, ptr noundef nonnull align 8 dereferenceable(56) %14, i32 noundef %15, ptr %17) #21
  invoke void @_ZN8nanobind6borrowINS_6detail14ndarray_objectIJfNS_5numpyENS1_5shapeIJLl4ELl4EEEENS_8f_contigEEEENS_6objectETnNSt9enable_ifIXaasr3stdE12is_base_of_vIS8_T0_Entsr3stdE21is_lvalue_reference_vISA_EEiE4typeELi0EEET_OSA_(ptr dead_on_unwind writable sret(%"class.nanobind::detail::ndarray_object") align 8 %0, ptr noundef nonnull align 8 dereferenceable(8) %9) #21
          to label %18 unwind label %19

18:                                               ; preds = %4
  call void @_ZN8nanobind6objectD2Ev(ptr noundef nonnull align 8 dereferenceable(8) %9) #23
  call void @llvm.lifetime.end.p0(i64 8, ptr %9) #22
  ret void

19:                                               ; preds = %4
  %20 = landingpad { ptr, i32 }
          cleanup
  %21 = extractvalue { ptr, i32 } %20, 0
  store ptr %21, ptr %11, align 8
  %22 = extractvalue { ptr, i32 } %20, 1
  store i32 %22, ptr %12, align 4
  call void @_ZN8nanobind6objectD2Ev(ptr noundef nonnull align 8 dereferenceable(8) %9) #23
  call void @llvm.lifetime.end.p0(i64 8, ptr %9) #22
  br label %23

23:                                               ; preds = %19
  %24 = load ptr, ptr %11, align 8
  %25 = load i32, ptr %12, align 4
  %26 = insertvalue { ptr, i32 } poison, ptr %24, 0
  %27 = insertvalue { ptr, i32 } %26, i32 %25, 1
  resume { ptr, i32 } %27
}

; Function Attrs: mustprogress nounwind optsize uwtable
define internal void @_ZN8nanobind4findIPZL30nanobind_init_test_ndarray_extRNS_7module_EE8Matrix4fEENS_6objectERKT_(ptr dead_on_unwind noalias writable sret(%"class.nanobind::object") align 8 %0, ptr noundef nonnull align 8 dereferenceable(8) %1) #8 personality ptr @__gxx_personality_v0 {
  %3 = alloca ptr, align 8
  %4 = alloca ptr, align 8
  %5 = alloca %"class.nanobind::handle", align 8
  store ptr %0, ptr %3, align 8
  store ptr %1, ptr %4, align 8, !tbaa !1017
  %6 = load ptr, ptr %4, align 8, !tbaa !1017
  %7 = call ptr @_ZN8nanobind6detail16type_caster_baseIZL30nanobind_init_test_ndarray_extRNS_7module_EE8Matrix4fE8from_cppIRKPS4_EENS_6handleEOT_NS_9rv_policyEPNS0_12cleanup_listE(ptr noundef nonnull align 8 dereferenceable(8) %6, i32 noundef 7, ptr noundef null) #23
  %8 = getelementptr inbounds nuw %"class.nanobind::handle", ptr %5, i32 0, i32 0
  store ptr %7, ptr %8, align 8
  %9 = getelementptr inbounds nuw %"class.nanobind::handle", ptr %5, i32 0, i32 0
  %10 = load ptr, ptr %9, align 8
  invoke void @_ZN8nanobind5stealINS_6objectEEET_NS_6handleE(ptr dead_on_unwind writable sret(%"class.nanobind::object") align 8 %0, ptr %10) #21
          to label %11 unwind label %12

11:                                               ; preds = %2
  ret void

12:                                               ; preds = %2
  %13 = landingpad { ptr, i32 }
          catch ptr null
  %14 = extractvalue { ptr, i32 } %13, 0
  call void @__clang_call_terminate(ptr %14) #24
  unreachable
}

; Function Attrs: mustprogress nounwind optsize uwtable
define linkonce_odr hidden i32 @_ZN8nanobind5dtypeIfEENS_6dlpack5dtypeEv() #8 comdat {
  %1 = alloca %"struct.nanobind::dlpack::dtype", align 2
  call void @llvm.memcpy.p0.p0.i64(ptr align 2 %1, ptr align 2 @_ZN8nanobind6detail12dtype_traitsIfiE5valueE, i64 4, i1 false), !tbaa.struct !170
  %2 = load i32, ptr %1, align 2
  ret i32 %2
}

; Function Attrs: mustprogress nounwind optsize uwtable
define linkonce_odr void @_ZNSt16initializer_listIlEC2Ev(ptr noundef nonnull align 8 dereferenceable(16) %0) unnamed_addr #8 comdat align 2 {
  %2 = alloca ptr, align 8
  store ptr %0, ptr %2, align 8, !tbaa !614
  %3 = load ptr, ptr %2, align 8
  %4 = getelementptr inbounds nuw %"class.std::initializer_list.441", ptr %3, i32 0, i32 0
  store ptr null, ptr %4, align 8, !tbaa !616
  %5 = getelementptr inbounds nuw %"class.std::initializer_list.441", ptr %3, i32 0, i32 1
  store i64 0, ptr %5, align 8, !tbaa !618
  ret void
}

; Function Attrs: mustprogress nounwind optsize uwtable
define linkonce_odr hidden void @_ZN8nanobind6handleC2Ev(ptr noundef nonnull align 8 dereferenceable(8) %0) unnamed_addr #8 comdat align 2 {
  %2 = alloca ptr, align 8
  store ptr %0, ptr %2, align 8, !tbaa !12
  %3 = load ptr, ptr %2, align 8
  %4 = getelementptr inbounds nuw %"class.nanobind::handle", ptr %3, i32 0, i32 0
  store ptr null, ptr %4, align 8, !tbaa !14
  ret void
}

; Function Attrs: mustprogress nounwind optsize uwtable
define linkonce_odr void @_ZNSt16initializer_listImEC2Ev(ptr noundef nonnull align 8 dereferenceable(16) %0) unnamed_addr #8 comdat align 2 {
  %2 = alloca ptr, align 8
  store ptr %0, ptr %2, align 8, !tbaa !619
  %3 = load ptr, ptr %2, align 8
  %4 = getelementptr inbounds nuw %"class.std::initializer_list", ptr %3, i32 0, i32 0
  store ptr null, ptr %4, align 8, !tbaa !62
  %5 = getelementptr inbounds nuw %"class.std::initializer_list", ptr %3, i32 0, i32 1
  store i64 0, ptr %5, align 8, !tbaa !65
  ret void
}

; Function Attrs: mustprogress optsize uwtable
define internal void @_ZZL30nanobind_init_test_ndarray_extRN8nanobind7module_EEN8Matrix4f8data_refEv(ptr dead_on_unwind noalias writable sret(%"class.nanobind::detail::ndarray_object") align 8 %0, ptr noundef nonnull align 4 dereferenceable(64) %1) #0 align 2 personality ptr @__gxx_personality_v0 {
  %3 = alloca ptr, align 8
  %4 = alloca ptr, align 8
  %5 = alloca %"class.nanobind::ndarray.149", align 8
  %6 = alloca %"class.std::initializer_list", align 8
  %7 = alloca %"class.nanobind::handle", align 8
  %8 = alloca %"class.std::initializer_list.441", align 8
  %9 = alloca %"struct.nanobind::dlpack::dtype", align 2
  %10 = alloca %"class.nanobind::handle", align 8
  %11 = alloca %"class.nanobind::object", align 8
  %12 = alloca ptr, align 8
  %13 = alloca ptr, align 8
  %14 = alloca i32, align 4
  store ptr %0, ptr %3, align 8
  store ptr %1, ptr %4, align 8, !tbaa !68
  %15 = load ptr, ptr %4, align 8
  call void @llvm.lifetime.start.p0(i64 56, ptr %5) #22
  %16 = getelementptr inbounds nuw %struct.Matrix4f, ptr %15, i32 0, i32 0
  %17 = getelementptr inbounds [4 x [4 x float]], ptr %16, i64 0, i64 0
  call void @_ZNSt16initializer_listImEC2Ev(ptr noundef nonnull align 8 dereferenceable(16) %6) #23
  call void @llvm.memset.p0.i64(ptr align 8 %7, i8 0, i64 8, i1 false)
  call void @_ZN8nanobind6handleC2Ev(ptr noundef nonnull align 8 dereferenceable(8) %7) #23
  call void @_ZNSt16initializer_listIlEC2Ev(ptr noundef nonnull align 8 dereferenceable(16) %8) #23
  %18 = call i32 @_ZN8nanobind5dtypeIfEENS_6dlpack5dtypeEv() #21
  store i32 %18, ptr %9, align 2
  %19 = getelementptr inbounds nuw { ptr, i64 }, ptr %6, i32 0, i32 0
  %20 = load ptr, ptr %19, align 8
  %21 = getelementptr inbounds nuw { ptr, i64 }, ptr %6, i32 0, i32 1
  %22 = load i64, ptr %21, align 8
  %23 = getelementptr inbounds nuw %"class.nanobind::handle", ptr %7, i32 0, i32 0
  %24 = load ptr, ptr %23, align 8
  %25 = load i32, ptr %9, align 2
  call void @_ZN8nanobind7ndarrayIJfNS_5numpyENS_6detail5shapeIJLl4ELl4EEEENS_8f_contigEEEC2EPvSt16initializer_listImENS_6handleES8_IlENS_6dlpack5dtypeEiic(ptr noundef nonnull align 8 dereferenceable(56) %5, ptr noundef %17, ptr %20, i64 %22, ptr %24, ptr noundef byval(%"class.std::initializer_list.441") align 8 %8, i32 %25, i32 noundef 0, i32 noundef 0, i8 noundef signext 70) #21
  call void @llvm.lifetime.start.p0(i64 8, ptr %11) #22
  call void @llvm.lifetime.start.p0(i64 8, ptr %12) #22
  store ptr %15, ptr %12, align 8, !tbaa !68
  call void @_ZN8nanobind4findIPZL30nanobind_init_test_ndarray_extRNS_7module_EE8Matrix4fEENS_6objectERKT_(ptr dead_on_unwind writable sret(%"class.nanobind::object") align 8 %11, ptr noundef nonnull align 8 dereferenceable(8) %12) #23
  call void @llvm.memcpy.p0.p0.i64(ptr align 8 %10, ptr align 8 %11, i64 8, i1 false)
  %26 = getelementptr inbounds nuw %"class.nanobind::handle", ptr %10, i32 0, i32 0
  %27 = load ptr, ptr %26, align 8
  invoke void @_ZN8nanobind7ndarrayIJfNS_5numpyENS_6detail5shapeIJLl4ELl4EEEENS_8f_contigEEE4castENS_9rv_policyENS_6handleE(ptr dead_on_unwind writable sret(%"class.nanobind::detail::ndarray_object") align 8 %0, ptr noundef nonnull align 8 dereferenceable(56) %5, i32 noundef 6, ptr %27) #21
          to label %28 unwind label %29

28:                                               ; preds = %2
  call void @_ZN8nanobind6objectD2Ev(ptr noundef nonnull align 8 dereferenceable(8) %11) #23
  call void @llvm.lifetime.end.p0(i64 8, ptr %12) #22
  call void @llvm.lifetime.end.p0(i64 8, ptr %11) #22
  call void @_ZN8nanobind7ndarrayIJfNS_5numpyENS_6detail5shapeIJLl4ELl4EEEENS_8f_contigEEED2Ev(ptr noundef nonnull align 8 dereferenceable(56) %5) #23
  call void @llvm.lifetime.end.p0(i64 56, ptr %5) #22
  ret void

29:                                               ; preds = %2
  %30 = landingpad { ptr, i32 }
          cleanup
  %31 = extractvalue { ptr, i32 } %30, 0
  store ptr %31, ptr %13, align 8
  %32 = extractvalue { ptr, i32 } %30, 1
  store i32 %32, ptr %14, align 4
  call void @_ZN8nanobind6objectD2Ev(ptr noundef nonnull align 8 dereferenceable(8) %11) #23
  call void @llvm.lifetime.end.p0(i64 8, ptr %12) #22
  call void @llvm.lifetime.end.p0(i64 8, ptr %11) #22
  call void @_ZN8nanobind7ndarrayIJfNS_5numpyENS_6detail5shapeIJLl4ELl4EEEENS_8f_contigEEED2Ev(ptr noundef nonnull align 8 dereferenceable(56) %5) #23
  call void @llvm.lifetime.end.p0(i64 56, ptr %5) #22
  br label %33

33:                                               ; preds = %29
  %34 = load ptr, ptr %13, align 8
  %35 = load i32, ptr %14, align 4
  %36 = insertvalue { ptr, i32 } poison, ptr %34, 0
  %37 = insertvalue { ptr, i32 } %36, i32 %35, 1
  resume { ptr, i32 } %37
}